; Function Attrs: mustprogress uwtable
define dso_local void @_ZN11btUnionFind8allocateEi(ptr noundef nonnull align 8 captures(none) dereferenceable(32) %0, i32 noundef %1) local_unnamed_addr #1 align 2 {
  %3 = getelementptr inbounds nuw i8, ptr %0, i64 4
  %4 = load i32, ptr %3, align 4, !tbaa !16
  %5 = icmp sgt i32 %1, %4
  br i1 %5, label %6, label %_ZN20btAlignedObjectArrayI9btElementE6resizeEiRKS0_.exit

6:                                                ; preds = %2
  %7 = getelementptr inbounds nuw i8, ptr %0, i64 8
  %8 = load i32, ptr %7, align 8, !tbaa !17
  %9 = icmp slt i32 %8, %1
  br i1 %9, label %10, label %.lr.ph.i

10:                                               ; preds = %6
  %.not.i.i.i = icmp eq i32 %1, 0
  br i1 %.not.i.i.i, label %_ZN20btAlignedObjectArrayI9btElementE8allocateEi.exit.i.i, label %11

11:                                               ; preds = %10
  %12 = sext i32 %1 to i64
  %13 = shl nsw i64 %12, 3
  %14 = tail call noundef ptr @_Z22btAlignedAllocInternalmi(i64 noundef %13, i32 noundef 16)
  %.pre.i = load i32, ptr %3, align 4, !tbaa !16
  br label %_ZN20btAlignedObjectArrayI9btElementE8allocateEi.exit.i.i

_ZN20btAlignedObjectArrayI9btElementE8allocateEi.exit.i.i: ; preds = %11, %10
  %15 = phi i32 [ %.pre.i, %11 ], [ %4, %10 ]
  %.0.i.i.i = phi ptr [ %14, %11 ], [ null, %10 ]
  %16 = icmp sgt i32 %15, 0
  br i1 %16, label %.lr.ph.i.i.i, label %_ZNK20btAlignedObjectArrayI9btElementE4copyEiiPS0_.exit.i.i

.lr.ph.i.i.i:                                     ; preds = %_ZN20btAlignedObjectArrayI9btElementE8allocateEi.exit.i.i
  %17 = getelementptr inbounds nuw i8, ptr %0, i64 16
  %wide.trip.count.i.i.i = zext nneg i32 %15 to i64
  br label %18

18:                                               ; preds = %18, %.lr.ph.i.i.i
  %indvars.iv.i.i.i = phi i64 [ 0, %.lr.ph.i.i.i ], [ %indvars.iv.next.i.i.i, %18 ]
  %19 = getelementptr inbounds nuw %struct.btElement, ptr %.0.i.i.i, i64 %indvars.iv.i.i.i
  %20 = load ptr, ptr %17, align 8, !tbaa !4
  %21 = getelementptr inbounds nuw %struct.btElement, ptr %20, i64 %indvars.iv.i.i.i
  %22 = load i64, ptr %21, align 4
  store i64 %22, ptr %19, align 4
  %indvars.iv.next.i.i.i = add nuw nsw i64 %indvars.iv.i.i.i, 1
  %exitcond.not.i.i.i = icmp eq i64 %indvars.iv.next.i.i.i, %wide.trip.count.i.i.i
  br i1 %exitcond.not.i.i.i, label %_ZNK20btAlignedObjectArrayI9btElementE4copyEiiPS0_.exit.i.i, label %18, !llvm.loop !18

_ZNK20btAlignedObjectArrayI9btElementE4copyEiiPS0_.exit.i.i: ; preds = %18, %_ZN20btAlignedObjectArrayI9btElementE8allocateEi.exit.i.i
  %23 = getelementptr inbounds nuw i8, ptr %0, i64 16
  %24 = load ptr, ptr %23, align 8, !tbaa !4
  %.not.i5.i.i = icmp eq ptr %24, null
  br i1 %.not.i5.i.i, label %_ZN20btAlignedObjectArrayI9btElementE7reserveEi.exit.i, label %25

25:                                               ; preds = %_ZNK20btAlignedObjectArrayI9btElementE4copyEiiPS0_.exit.i.i
  %26 = getelementptr inbounds nuw i8, ptr %0, i64 24
  %27 = load i8, ptr %26, align 8, !tbaa !13, !range !14, !noundef !15
  %28 = trunc nuw i8 %27 to i1
  br i1 %28, label %29, label %_ZN20btAlignedObjectArrayI9btElementE7reserveEi.exit.i

29:                                               ; preds = %25
  tail call void @_Z21btAlignedFreeInternalPv(ptr noundef nonnull %24)
  br label %_ZN20btAlignedObjectArrayI9btElementE7reserveEi.exit.i

_ZN20btAlignedObjectArrayI9btElementE7reserveEi.exit.i: ; preds = %29, %25, %_ZNK20btAlignedObjectArrayI9btElementE4copyEiiPS0_.exit.i.i
  %30 = getelementptr inbounds nuw i8, ptr %0, i64 24
  store i8 1, ptr %30, align 8, !tbaa !13
  store ptr %.0.i.i.i, ptr %23, align 8, !tbaa !4
  store i32 %1, ptr %7, align 8, !tbaa !17
  br label %.lr.ph.i

.lr.ph.i:                                         ; preds = %_ZN20btAlignedObjectArrayI9btElementE7reserveEi.exit.i, %6
  %31 = getelementptr inbounds nuw i8, ptr %0, i64 16
  %32 = sext i32 %4 to i64
  %wide.trip.count.i = sext i32 %1 to i64
  br label %33

33:                                               ; preds = %33, %.lr.ph.i
  %indvars.iv.i = phi i64 [ %32, %.lr.ph.i ], [ %indvars.iv.next.i, %33 ]
  %34 = load ptr, ptr %31, align 8, !tbaa !4
  %35 = getelementptr inbounds %struct.btElement, ptr %34, i64 %indvars.iv.i
  store i64 0, ptr %35, align 4
  %indvars.iv.next.i = add nsw i64 %indvars.iv.i, 1
  %exitcond.not.i = icmp eq i64 %indvars.iv.next.i, %wide.trip.count.i
  br i1 %exitcond.not.i, label %_ZN20btAlignedObjectArrayI9btElementE6resizeEiRKS0_.exit, label %33, !llvm.loop !20

_ZN20btAlignedObjectArrayI9btElementE6resizeEiRKS0_.exit: ; preds = %33, %2
  store i32 %1, ptr %3, align 4, !tbaa !16
  ret void
}